target datalayout = "e-m:e-p270:32:32-p271:32:32-p272:64:64-i64:64-i128:128-f80:128-n8:16:32:64-S128"
target triple = "x86_64-pc-linux-gnu"

%struct.ctest = type { ptr, ptr, ptr, i32, ptr, ptr, ptr, ptr, i32 }

@suite_name = internal global ptr null, align 8

; Function Attrs: nounwind uwtable
define internal i32 @suite_filter(ptr noundef %0) #0 {
  %2 = alloca ptr, align 8
  store ptr %0, ptr %2, align 8, !tbaa !24
  %3 = load ptr, ptr @suite_name, align 8, !tbaa !3
  %4 = load ptr, ptr %2, align 8, !tbaa !24
  %5 = getelementptr inbounds nuw %struct.ctest, ptr %4, i32 0, i32 0
  %6 = load ptr, ptr %5, align 8, !tbaa !29
  %7 = load ptr, ptr @suite_name, align 8, !tbaa !3
  %8 = call i64 @strlen(ptr noundef %7) #11
  %9 = call i32 @strncmp(ptr noundef %3, ptr noundef %6, i64 noundef %8) #11
  %10 = icmp eq i32 %9, 0
  %11 = zext i1 %10 to i32
  ret i32 %11
}