; Function Attrs: mustprogress nofree nounwind willreturn memory(read, inaccessiblemem: none) uwtable
define internal range(i32 0, 2) i32 @suite_filter(ptr noundef readonly captures(none) %0) #10 {
  %2 = load ptr, ptr @suite_name, align 8, !tbaa !7
  %3 = load ptr, ptr %0, align 8, !tbaa !27
  %4 = tail call i64 @strlen(ptr noundef nonnull dereferenceable(1) %2) #16
  %5 = tail call i32 @strncmp(ptr noundef nonnull %2, ptr noundef %3, i64 noundef %4) #16
  %6 = icmp eq i32 %5, 0
  %7 = zext i1 %6 to i32
  ret i32 %7
}